target datalayout = "e-m:e-p270:32:32-p271:32:32-p272:64:64-i64:64-i128:128-f80:128-n8:16:32:64-S128"
target triple = "x86_64-pc-linux-gnu"

; Function Attrs: nounwind uwtable
define i32 @lv_pct(i32 noundef %0) #0 {
  %2 = alloca i32, align 4
  store i32 %0, ptr %2, align 4, !tbaa !7
  %3 = load i32, ptr %2, align 4, !tbaa !7
  %4 = icmp slt i32 %3, 0
  br i1 %4, label %5, label %14

5:                                                ; preds = %1
  %6 = load i32, ptr %2, align 4, !tbaa !7
  %7 = icmp sgt i32 %6, -268435455
  br i1 %7, label %8, label %10

8:                                                ; preds = %5
  %9 = load i32, ptr %2, align 4, !tbaa !7
  br label %11

10:                                               ; preds = %5
  br label %11

11:                                               ; preds = %10, %8
  %12 = phi i32 [ %9, %8 ], [ -268435455, %10 ]
  %13 = sub nsw i32 268435455, %12
  br label %22

14:                                               ; preds = %1
  %15 = load i32, ptr %2, align 4, !tbaa !7
  %16 = icmp slt i32 %15, 268435455
  br i1 %16, label %17, label %19

17:                                               ; preds = %14
  %18 = load i32, ptr %2, align 4, !tbaa !7
  br label %20

19:                                               ; preds = %14
  br label %20

20:                                               ; preds = %19, %17
  %21 = phi i32 [ %18, %17 ], [ 268435455, %19 ]
  br label %22

22:                                               ; preds = %20, %11
  %23 = phi i32 [ %13, %11 ], [ %21, %20 ]
  %24 = or i32 %23, 536870912
  ret i32 %24
}