; Function Attrs: mustprogress nofree norecurse nosync nounwind willreturn memory(none) uwtable
define range(i32 536870912, 1073741824) i32 @lv_pct(i32 noundef %0) local_unnamed_addr #7 {
  %2 = icmp slt i32 %0, 0
  br i1 %2, label %3, label %6

3:                                                ; preds = %1
  %4 = tail call i32 @llvm.umax.i32(i32 %0, i32 -268435455)
  %5 = sub nsw i32 268435455, %4
  br label %8

6:                                                ; preds = %1
  %7 = tail call i32 @llvm.umin.i32(i32 %0, i32 268435455)
  br label %8

8:                                                ; preds = %6, %3
  %9 = phi i32 [ %5, %3 ], [ %7, %6 ]
  %10 = or i32 %9, 536870912
  ret i32 %10
}